; ModuleID = '24/2261.c'
source_filename = "24/2261.c"
target datalayout = "e-m:e-p270:32:32-p271:32:32-p272:64:64-i64:64-f80:128-n8:16:32:64-S128"
target triple = "x86_64-pc-linux-gnu"

@.str = private unnamed_addr constant [4 x i8] c"%s\0A\00", align 1
@.str.1 = private unnamed_addr constant [3 x i8] c"%s\00", align 1

; Function Attrs: noinline nounwind uwtable
define dso_local void @main() #0 {
  %1 = alloca i8, align 1
  %2 = alloca [210 x [100 x i8]], align 16
  %3 = alloca i32, align 4
  %4 = alloca i32, align 4
  %5 = alloca i32, align 4
  %6 = alloca i32, align 4
  store i32 0, i32* %3, align 4
  store i32 1, i32* %5, align 4
  br label %7

7:                                                ; preds = %59, %26, %0
  %8 = load i32, i32* %5, align 4
  %9 = icmp eq i32 %8, 0
  br i1 %9, label %10, label %11

10:                                               ; preds = %7
  br label %69

11:                                               ; preds = %7
  %12 = call i32 @getchar()
  %13 = trunc i32 %12 to i8
  store i8 %13, i8* %1, align 1
  %14 = load i8, i8* %1, align 1
  %15 = sext i8 %14 to i32
  %16 = icmp eq i32 %15, 10
  br i1 %16, label %17, label %18

17:                                               ; preds = %11
  br label %69

18:                                               ; preds = %11
  %19 = load i8, i8* %1, align 1
  %20 = sext i8 %19 to i32
  %21 = icmp eq i32 %20, 32
  br i1 %21, label %26, label %22

22:                                               ; preds = %18
  %23 = load i8, i8* %1, align 1
  %24 = sext i8 %23 to i32
  %25 = icmp eq i32 %24, 44
  br i1 %25, label %26, label %27

26:                                               ; preds = %22, %18
  br label %7

27:                                               ; preds = %22
  store i32 0, i32* %4, align 4
  %28 = load i8, i8* %1, align 1
  %29 = load i32, i32* %3, align 4
  %30 = sext i32 %29 to i64
  %31 = getelementptr inbounds [210 x [100 x i8]], [210 x [100 x i8]]* %2, i64 0, i64 %30
  %32 = getelementptr inbounds [100 x i8], [100 x i8]* %31, i64 0, i64 0
  store i8 %28, i8* %32, align 4
  br label %33

33:                                               ; preds = %49, %27
  %34 = call i32 @getchar()
  %35 = trunc i32 %34 to i8
  store i8 %35, i8* %1, align 1
  %36 = load i8, i8* %1, align 1
  %37 = sext i8 %36 to i32
  %38 = icmp eq i32 %37, 32
  br i1 %38, label %43, label %39

39:                                               ; preds = %33
  %40 = load i8, i8* %1, align 1
  %41 = sext i8 %40 to i32
  %42 = icmp eq i32 %41, 44
  br i1 %42, label %43, label %44

43:                                               ; preds = %39, %33
  br label %59

44:                                               ; preds = %39
  %45 = load i8, i8* %1, align 1
  %46 = sext i8 %45 to i32
  %47 = icmp eq i32 %46, 10
  br i1 %47, label %48, label %49

48:                                               ; preds = %44
  store i32 0, i32* %5, align 4
  br label %59

49:                                               ; preds = %44
  %50 = load i32, i32* %4, align 4
  %51 = add nsw i32 %50, 1
  store i32 %51, i32* %4, align 4
  %52 = load i8, i8* %1, align 1
  %53 = load i32, i32* %3, align 4
  %54 = sext i32 %53 to i64
  %55 = getelementptr inbounds [210 x [100 x i8]], [210 x [100 x i8]]* %2, i64 0, i64 %54
  %56 = load i32, i32* %4, align 4
  %57 = sext i32 %56 to i64
  %58 = getelementptr inbounds [100 x i8], [100 x i8]* %55, i64 0, i64 %57
  store i8 %52, i8* %58, align 1
  br label %33

59:                                               ; preds = %48, %43
  %60 = load i32, i32* %3, align 4
  %61 = sext i32 %60 to i64
  %62 = getelementptr inbounds [210 x [100 x i8]], [210 x [100 x i8]]* %2, i64 0, i64 %61
  %63 = load i32, i32* %4, align 4
  %64 = add nsw i32 %63, 1
  %65 = sext i32 %64 to i64
  %66 = getelementptr inbounds [100 x i8], [100 x i8]* %62, i64 0, i64 %65
  store i8 0, i8* %66, align 1
  %67 = load i32, i32* %3, align 4
  %68 = add nsw i32 %67, 1
  store i32 %68, i32* %3, align 4
  br label %7

69:                                               ; preds = %17, %10
  %70 = load i32, i32* %3, align 4
  %71 = sub nsw i32 %70, 1
  store i32 %71, i32* %6, align 4
  store i32 1, i32* %3, align 4
  store i32 0, i32* %4, align 4
  br label %72

72:                                               ; preds = %91, %69
  %73 = load i32, i32* %3, align 4
  %74 = load i32, i32* %6, align 4
  %75 = icmp sle i32 %73, %74
  br i1 %75, label %76, label %94

76:                                               ; preds = %72
  %77 = load i32, i32* %4, align 4
  %78 = sext i32 %77 to i64
  %79 = getelementptr inbounds [210 x [100 x i8]], [210 x [100 x i8]]* %2, i64 0, i64 %78
  %80 = getelementptr inbounds [100 x i8], [100 x i8]* %79, i64 0, i64 0
  %81 = call i64 @strlen(i8* %80) #3
  %82 = load i32, i32* %3, align 4
  %83 = sext i32 %82 to i64
  %84 = getelementptr inbounds [210 x [100 x i8]], [210 x [100 x i8]]* %2, i64 0, i64 %83
  %85 = getelementptr inbounds [100 x i8], [100 x i8]* %84, i64 0, i64 0
  %86 = call i64 @strlen(i8* %85) #3
  %87 = icmp ult i64 %81, %86
  br i1 %87, label %88, label %90

88:                                               ; preds = %76
  %89 = load i32, i32* %3, align 4
  store i32 %89, i32* %4, align 4
  br label %90

90:                                               ; preds = %88, %76
  br label %91

91:                                               ; preds = %90
  %92 = load i32, i32* %3, align 4
  %93 = add nsw i32 %92, 1
  store i32 %93, i32* %3, align 4
  br label %72

94:                                               ; preds = %72
  %95 = load i32, i32* %4, align 4
  %96 = sext i32 %95 to i64
  %97 = getelementptr inbounds [210 x [100 x i8]], [210 x [100 x i8]]* %2, i64 0, i64 %96
  %98 = getelementptr inbounds [100 x i8], [100 x i8]* %97, i64 0, i64 0
  %99 = call i32 (i8*, ...) @printf(i8* getelementptr inbounds ([4 x i8], [4 x i8]* @.str, i64 0, i64 0), i8* %98)
  store i32 1, i32* %3, align 4
  store i32 0, i32* %4, align 4
  br label %100

100:                                              ; preds = %119, %94
  %101 = load i32, i32* %3, align 4
  %102 = load i32, i32* %6, align 4
  %103 = icmp sle i32 %101, %102
  br i1 %103, label %104, label %122

104:                                              ; preds = %100
  %105 = load i32, i32* %4, align 4
  %106 = sext i32 %105 to i64
  %107 = getelementptr inbounds [210 x [100 x i8]], [210 x [100 x i8]]* %2, i64 0, i64 %106
  %108 = getelementptr inbounds [100 x i8], [100 x i8]* %107, i64 0, i64 0
  %109 = call i64 @strlen(i8* %108) #3
  %110 = load i32, i32* %3, align 4
  %111 = sext i32 %110 to i64
  %112 = getelementptr inbounds [210 x [100 x i8]], [210 x [100 x i8]]* %2, i64 0, i64 %111
  %113 = getelementptr inbounds [100 x i8], [100 x i8]* %112, i64 0, i64 0
  %114 = call i64 @strlen(i8* %113) #3
  %115 = icmp ugt i64 %109, %114
  br i1 %115, label %116, label %118

116:                                              ; preds = %104
  %117 = load i32, i32* %3, align 4
  store i32 %117, i32* %4, align 4
  br label %118

118:                                              ; preds = %116, %104
  br label %119

119:                                              ; preds = %118
  %120 = load i32, i32* %3, align 4
  %121 = add nsw i32 %120, 1
  store i32 %121, i32* %3, align 4
  br label %100

122:                                              ; preds = %100
  %123 = load i32, i32* %4, align 4
  %124 = sext i32 %123 to i64
  %125 = getelementptr inbounds [210 x [100 x i8]], [210 x [100 x i8]]* %2, i64 0, i64 %124
  %126 = getelementptr inbounds [100 x i8], [100 x i8]* %125, i64 0, i64 0
  %127 = call i32 (i8*, ...) @printf(i8* getelementptr inbounds ([3 x i8], [3 x i8]* @.str.1, i64 0, i64 0), i8* %126)
  ret void
}

declare dso_local i32 @getchar() #1

; Function Attrs: nounwind readonly
declare dso_local i64 @strlen(i8*) #2

declare dso_local i32 @printf(i8*, ...) #1


!llvm.module.flags = !{!0}
!llvm.ident = !{!1}

!0 = !{i32 1, !"wchar_size", i32 4}
!1 = !{!"clang version 10.0.0-4ubuntu1 "}
